; Function Attrs: mustprogress nofree nounwind willreturn memory(readwrite, inaccessiblemem: write) uwtable
define internal { double, double } @_ZL14poly_s_forward5PJ_LPP8PJconsts(double %0, double %1, ptr noundef readonly captures(none) %2) #4 {
  %4 = tail call double @llvm.fabs.f64(double %1)
  %5 = fcmp ugt double %4, 1.000000e-10
  br i1 %5, label %10, label %6

6:                                                ; preds = %3
  %7 = getelementptr inbounds nuw i8, ptr %2, i64 88
  %8 = load ptr, ptr %7, align 8, !tbaa !40
  %9 = load double, ptr %8, align 8, !tbaa !49
  br label %23

10:                                               ; preds = %3
  %11 = tail call double @tan(double noundef %1) #8, !tbaa !48
  %12 = fdiv double 1.000000e+00, %11
  %13 = tail call double @sin(double noundef %1) #8, !tbaa !48
  %14 = fmul double %0, %13
  %15 = tail call double @sin(double noundef %14) #8, !tbaa !48
  %16 = fmul double %12, %15
  %17 = getelementptr inbounds nuw i8, ptr %2, i64 448
  %18 = load double, ptr %17, align 8, !tbaa !47
  %19 = fsub double %1, %18
  %20 = tail call double @cos(double noundef %14) #8, !tbaa !48
  %21 = fsub double 1.000000e+00, %20
  %22 = tail call double @llvm.fmuladd.f64(double %12, double %21, double %19)
  br label %23

23:                                               ; preds = %10, %6
  %.sroa.4.0 = phi double [ %9, %6 ], [ %22, %10 ]
  %.sroa.011.0 = phi double [ %0, %6 ], [ %16, %10 ]
  %.fca.0.insert = insertvalue { double, double } poison, double %.sroa.011.0, 0
  %.fca.1.insert = insertvalue { double, double } %.fca.0.insert, double %.sroa.4.0, 1
  ret { double, double } %.fca.1.insert
}